target datalayout = "e-m:e-p270:32:32-p271:32:32-p272:64:64-i64:64-i128:128-f80:128-n8:16:32:64-S128"
target triple = "x86_64-pc-linux-gnu"

%struct._object = type { %union.anon, ptr }
%union.anon = type { i64 }
%struct._typeobject = type { %struct.PyVarObject, ptr, i64, i64, ptr, i64, ptr, ptr, ptr, ptr, ptr, ptr, ptr, ptr, ptr, ptr, ptr, ptr, ptr, i64, ptr, ptr, ptr, ptr, i64, ptr, ptr, ptr, ptr, ptr, ptr, ptr, ptr, ptr, i64, ptr, ptr, ptr, ptr, ptr, ptr, ptr, ptr, ptr, ptr, ptr, i32, ptr, ptr, i8, i16 }
%struct.PyVarObject = type { %struct._object, i64 }
%struct.anon = type { i32, i32 }
%struct.PyTupleObject = type { %struct.PyVarObject, [1 x ptr] }
%struct.attrgetterobject = type { %struct._object, i64, ptr, ptr }

@PyTuple_Type = external global %struct._typeobject, align 8

; Function Attrs: inlinehint nounwind uwtable
define internal i64 @Py_SIZE(ptr noundef %0) #3 {
  %2 = alloca ptr, align 8
  store ptr %0, ptr %2, align 8, !tbaa !4
  %3 = load ptr, ptr %2, align 8, !tbaa !4
  %4 = getelementptr inbounds nuw %struct.PyVarObject, ptr %3, i32 0, i32 1
  %5 = load i64, ptr %4, align 8, !tbaa !60
  ret i64 %5
}

; Function Attrs: inlinehint nounwind uwtable
define internal ptr @_Py_TYPE(ptr noundef %0) #3 {
  %2 = alloca ptr, align 8
  store ptr %0, ptr %2, align 8, !tbaa !4
  %3 = load ptr, ptr %2, align 8, !tbaa !4
  %4 = getelementptr inbounds nuw %struct._object, ptr %3, i32 0, i32 1
  %5 = load ptr, ptr %4, align 8, !tbaa !38
  ret ptr %5
}

; Function Attrs: alwaysinline nounwind uwtable
define internal i32 @_Py_IsImmortal(ptr noundef %0) #4 {
  %2 = alloca ptr, align 8
  store ptr %0, ptr %2, align 8, !tbaa !4
  %3 = load ptr, ptr %2, align 8, !tbaa !4
  %4 = getelementptr inbounds nuw %struct._object, ptr %3, i32 0, i32 0
  %5 = getelementptr inbounds nuw %struct.anon, ptr %4, i32 0, i32 0
  %6 = load i32, ptr %5, align 8, !tbaa !20
  %7 = icmp slt i32 %6, 0
  %8 = zext i1 %7 to i32
  ret i32 %8
}

; Function Attrs: alwaysinline nounwind uwtable
define internal void @Py_INCREF(ptr noundef %0) #4 {
  %2 = alloca ptr, align 8
  %3 = alloca i32, align 4
  %4 = alloca i32, align 4
  store ptr %0, ptr %2, align 8, !tbaa !4
  call void @llvm.lifetime.start.p0(i64 4, ptr %3) #7
  %5 = load ptr, ptr %2, align 8, !tbaa !4
  %6 = getelementptr inbounds nuw %struct._object, ptr %5, i32 0, i32 0
  %7 = getelementptr inbounds nuw %struct.anon, ptr %6, i32 0, i32 0
  %8 = load i32, ptr %7, align 8, !tbaa !20
  store i32 %8, ptr %3, align 4, !tbaa !12
  %9 = load i32, ptr %3, align 4, !tbaa !12
  %10 = icmp slt i32 %9, 0
  br i1 %10, label %11, label %12

11:                                               ; preds = %1
  store i32 1, ptr %4, align 4
  br label %18

12:                                               ; preds = %1
  %13 = load i32, ptr %3, align 4, !tbaa !12
  %14 = add i32 %13, 1
  %15 = load ptr, ptr %2, align 8, !tbaa !4
  %16 = getelementptr inbounds nuw %struct._object, ptr %15, i32 0, i32 0
  %17 = getelementptr inbounds nuw %struct.anon, ptr %16, i32 0, i32 0
  store i32 %14, ptr %17, align 8, !tbaa !20
  store i32 0, ptr %4, align 4
  br label %18

18:                                               ; preds = %12, %11
  call void @llvm.lifetime.end.p0(i64 4, ptr %3) #7
  %19 = load i32, ptr %4, align 4
  switch i32 %19, label %21 [
    i32 0, label %20
    i32 1, label %20
  ]

20:                                               ; preds = %18, %18
  ret void

21:                                               ; preds = %18
  unreachable
}

; Function Attrs: inlinehint nounwind uwtable
define internal i64 @PyTuple_GET_SIZE(ptr noundef %0) #3 {
  %2 = alloca ptr, align 8
  %3 = alloca ptr, align 8
  store ptr %0, ptr %2, align 8, !tbaa !4
  call void @llvm.lifetime.start.p0(i64 8, ptr %3) #7
  %4 = load ptr, ptr %2, align 8, !tbaa !4
  store ptr %4, ptr %3, align 8, !tbaa !9
  %5 = load ptr, ptr %3, align 8, !tbaa !9
  %6 = call i64 @Py_SIZE(ptr noundef %5)
  call void @llvm.lifetime.end.p0(i64 8, ptr %3) #7
  ret i64 %6
}

; Function Attrs: inlinehint nounwind uwtable
define internal i32 @Py_IS_TYPE(ptr noundef %0, ptr noundef %1) #3 {
  %3 = alloca ptr, align 8
  %4 = alloca ptr, align 8
  store ptr %0, ptr %3, align 8, !tbaa !4
  store ptr %1, ptr %4, align 8, !tbaa !36
  %5 = load ptr, ptr %3, align 8, !tbaa !4
  %6 = call ptr @_Py_TYPE(ptr noundef %5)
  %7 = load ptr, ptr %4, align 8, !tbaa !36
  %8 = icmp eq ptr %6, %7
  %9 = zext i1 %8 to i32
  ret i32 %9
}

; Function Attrs: inlinehint nounwind uwtable
define internal void @PyTuple_SET_ITEM(ptr noundef %0, i64 noundef %1, ptr noundef %2) #3 {
  %4 = alloca ptr, align 8
  %5 = alloca i64, align 8
  %6 = alloca ptr, align 8
  %7 = alloca ptr, align 8
  store ptr %0, ptr %4, align 8, !tbaa !4
  store i64 %1, ptr %5, align 8, !tbaa !18
  store ptr %2, ptr %6, align 8, !tbaa !4
  call void @llvm.lifetime.start.p0(i64 8, ptr %7) #7
  %8 = load ptr, ptr %4, align 8, !tbaa !4
  store ptr %8, ptr %7, align 8, !tbaa !9
  %9 = load ptr, ptr %6, align 8, !tbaa !4
  %10 = load ptr, ptr %7, align 8, !tbaa !9
  %11 = getelementptr inbounds nuw %struct.PyTupleObject, ptr %10, i32 0, i32 1
  %12 = load i64, ptr %5, align 8, !tbaa !18
  %13 = getelementptr [1 x ptr], ptr %11, i64 0, i64 %12
  store ptr %9, ptr %13, align 8, !tbaa !4
  call void @llvm.lifetime.end.p0(i64 8, ptr %7) #7
  ret void
}

; Function Attrs: alwaysinline nounwind uwtable
define internal void @Py_DECREF(ptr noundef %0) #4 {
  %2 = alloca ptr, align 8
  store ptr %0, ptr %2, align 8, !tbaa !4
  %3 = load ptr, ptr %2, align 8, !tbaa !4
  %4 = call i32 @_Py_IsImmortal(ptr noundef %3)
  %5 = icmp ne i32 %4, 0
  br i1 %5, label %6, label %7

6:                                                ; preds = %1
  br label %16

7:                                                ; preds = %1
  %8 = load ptr, ptr %2, align 8, !tbaa !4
  %9 = getelementptr inbounds nuw %struct._object, ptr %8, i32 0, i32 0
  %10 = getelementptr inbounds nuw %struct.anon, ptr %9, i32 0, i32 0
  %11 = load i32, ptr %10, align 8, !tbaa !20
  %12 = add i32 %11, -1
  store i32 %12, ptr %10, align 8, !tbaa !20
  %13 = icmp eq i32 %12, 0
  br i1 %13, label %14, label %16

14:                                               ; preds = %7
  %15 = load ptr, ptr %2, align 8, !tbaa !4
  call void @_Py_Dealloc(ptr noundef %15)
  br label %16

16:                                               ; preds = %6, %14, %7
  ret void
}

; Function Attrs: nounwind uwtable
define internal ptr @dotted_getattr(ptr noundef %0, ptr noundef %1) #0 {
  %3 = alloca ptr, align 8
  %4 = alloca ptr, align 8
  %5 = alloca ptr, align 8
  %6 = alloca ptr, align 8
  %7 = alloca i64, align 8
  %8 = alloca i64, align 8
  %9 = alloca ptr, align 8
  %10 = alloca i32, align 4
  store ptr %0, ptr %4, align 8, !tbaa !4
  store ptr %1, ptr %5, align 8, !tbaa !4
  call void @llvm.lifetime.start.p0(i64 8, ptr %6) #7
  %11 = load ptr, ptr %5, align 8, !tbaa !4
  %12 = call i32 @Py_IS_TYPE(ptr noundef %11, ptr noundef @PyTuple_Type)
  %13 = icmp ne i32 %12, 0
  br i1 %13, label %14, label %44

14:                                               ; preds = %2
  call void @llvm.lifetime.start.p0(i64 8, ptr %7) #7
  store i64 0, ptr %7, align 8, !tbaa !18
  call void @llvm.lifetime.start.p0(i64 8, ptr %8) #7
  call void @llvm.lifetime.start.p0(i64 8, ptr %9) #7
  %15 = load ptr, ptr %5, align 8, !tbaa !4
  %16 = call i64 @PyTuple_GET_SIZE(ptr noundef %15)
  store i64 %16, ptr %8, align 8, !tbaa !18
  %17 = load ptr, ptr %4, align 8, !tbaa !4
  call void @Py_INCREF(ptr noundef %17)
  store i64 0, ptr %7, align 8, !tbaa !18
  br label %18

18:                                               ; preds = %37, %14
  %19 = load i64, ptr %7, align 8, !tbaa !18
  %20 = load i64, ptr %8, align 8, !tbaa !18
  %21 = icmp slt i64 %19, %20
  br i1 %21, label %22, label %40

22:                                               ; preds = %18
  %23 = load ptr, ptr %5, align 8, !tbaa !4
  %24 = getelementptr inbounds nuw %struct.PyTupleObject, ptr %23, i32 0, i32 1
  %25 = load i64, ptr %7, align 8, !tbaa !18
  %26 = getelementptr [1 x ptr], ptr %24, i64 0, i64 %25
  %27 = load ptr, ptr %26, align 8, !tbaa !4
  store ptr %27, ptr %9, align 8, !tbaa !4
  %28 = load ptr, ptr %4, align 8, !tbaa !4
  %29 = load ptr, ptr %9, align 8, !tbaa !4
  %30 = call ptr @PyObject_GetAttr(ptr noundef %28, ptr noundef %29)
  store ptr %30, ptr %6, align 8, !tbaa !4
  %31 = load ptr, ptr %4, align 8, !tbaa !4
  call void @Py_DECREF(ptr noundef %31)
  %32 = load ptr, ptr %6, align 8, !tbaa !4
  %33 = icmp eq ptr %32, null
  br i1 %33, label %34, label %35

34:                                               ; preds = %22
  store ptr null, ptr %3, align 8
  store i32 1, ptr %10, align 4
  br label %41

35:                                               ; preds = %22
  %36 = load ptr, ptr %6, align 8, !tbaa !4
  store ptr %36, ptr %4, align 8, !tbaa !4
  br label %37

37:                                               ; preds = %35
  %38 = load i64, ptr %7, align 8, !tbaa !18
  %39 = add i64 %38, 1
  store i64 %39, ptr %7, align 8, !tbaa !18
  br label %18, !llvm.loop !61

40:                                               ; preds = %18
  store i32 0, ptr %10, align 4
  br label %41

41:                                               ; preds = %40, %34
  call void @llvm.lifetime.end.p0(i64 8, ptr %9) #7
  call void @llvm.lifetime.end.p0(i64 8, ptr %8) #7
  call void @llvm.lifetime.end.p0(i64 8, ptr %7) #7
  %42 = load i32, ptr %10, align 4
  switch i32 %42, label %55 [
    i32 0, label %43
  ]

43:                                               ; preds = %41
  br label %53

44:                                               ; preds = %2
  %45 = load ptr, ptr %4, align 8, !tbaa !4
  %46 = load ptr, ptr %5, align 8, !tbaa !4
  %47 = call ptr @PyObject_GetAttr(ptr noundef %45, ptr noundef %46)
  store ptr %47, ptr %6, align 8, !tbaa !4
  %48 = load ptr, ptr %6, align 8, !tbaa !4
  %49 = icmp eq ptr %48, null
  br i1 %49, label %50, label %51

50:                                               ; preds = %44
  store ptr null, ptr %3, align 8
  store i32 1, ptr %10, align 4
  br label %55

51:                                               ; preds = %44
  %52 = load ptr, ptr %6, align 8, !tbaa !4
  store ptr %52, ptr %4, align 8, !tbaa !4
  br label %53

53:                                               ; preds = %51, %43
  %54 = load ptr, ptr %4, align 8, !tbaa !4
  store ptr %54, ptr %3, align 8
  store i32 1, ptr %10, align 4
  br label %55

55:                                               ; preds = %53, %50, %41
  call void @llvm.lifetime.end.p0(i64 8, ptr %6) #7
  %56 = load ptr, ptr %3, align 8
  ret ptr %56
}

; Function Attrs: nounwind uwtable
define internal ptr @attrgetter_call_impl(ptr noundef %0, ptr noundef %1) #0 {
  %3 = alloca ptr, align 8
  %4 = alloca ptr, align 8
  %5 = alloca ptr, align 8
  %6 = alloca ptr, align 8
  %7 = alloca i64, align 8
  %8 = alloca i64, align 8
  %9 = alloca i32, align 4
  %10 = alloca ptr, align 8
  %11 = alloca ptr, align 8
  store ptr %0, ptr %4, align 8, !tbaa !9
  store ptr %1, ptr %5, align 8, !tbaa !4
  call void @llvm.lifetime.start.p0(i64 8, ptr %6) #7
  call void @llvm.lifetime.start.p0(i64 8, ptr %7) #7
  call void @llvm.lifetime.start.p0(i64 8, ptr %8) #7
  %12 = load ptr, ptr %4, align 8, !tbaa !9
  %13 = getelementptr inbounds nuw %struct.attrgetterobject, ptr %12, i32 0, i32 1
  %14 = load i64, ptr %13, align 8, !tbaa !57
  store i64 %14, ptr %8, align 8, !tbaa !18
  %15 = load ptr, ptr %4, align 8, !tbaa !9
  %16 = getelementptr inbounds nuw %struct.attrgetterobject, ptr %15, i32 0, i32 1
  %17 = load i64, ptr %16, align 8, !tbaa !57
  %18 = icmp eq i64 %17, 1
  br i1 %18, label %19, label %28

19:                                               ; preds = %2
  %20 = load ptr, ptr %5, align 8, !tbaa !4
  %21 = load ptr, ptr %4, align 8, !tbaa !9
  %22 = getelementptr inbounds nuw %struct.attrgetterobject, ptr %21, i32 0, i32 2
  %23 = load ptr, ptr %22, align 8, !tbaa !49
  %24 = getelementptr inbounds nuw %struct.PyTupleObject, ptr %23, i32 0, i32 1
  %25 = getelementptr [1 x ptr], ptr %24, i64 0, i64 0
  %26 = load ptr, ptr %25, align 8, !tbaa !4
  %27 = call ptr @dotted_getattr(ptr noundef %20, ptr noundef %26)
  store ptr %27, ptr %3, align 8
  store i32 1, ptr %9, align 4
  br label %66

28:                                               ; preds = %2
  %29 = load i64, ptr %8, align 8, !tbaa !18
  %30 = call ptr @PyTuple_New(i64 noundef %29)
  store ptr %30, ptr %6, align 8, !tbaa !4
  %31 = load ptr, ptr %6, align 8, !tbaa !4
  %32 = icmp eq ptr %31, null
  br i1 %32, label %33, label %34

33:                                               ; preds = %28
  store ptr null, ptr %3, align 8
  store i32 1, ptr %9, align 4
  br label %66

34:                                               ; preds = %28
  store i64 0, ptr %7, align 8, !tbaa !18
  br label %35

35:                                               ; preds = %61, %34
  %36 = load i64, ptr %7, align 8, !tbaa !18
  %37 = load i64, ptr %8, align 8, !tbaa !18
  %38 = icmp slt i64 %36, %37
  br i1 %38, label %39, label %64

39:                                               ; preds = %35
  call void @llvm.lifetime.start.p0(i64 8, ptr %10) #7
  call void @llvm.lifetime.start.p0(i64 8, ptr %11) #7
  %40 = load ptr, ptr %4, align 8, !tbaa !9
  %41 = getelementptr inbounds nuw %struct.attrgetterobject, ptr %40, i32 0, i32 2
  %42 = load ptr, ptr %41, align 8, !tbaa !49
  %43 = getelementptr inbounds nuw %struct.PyTupleObject, ptr %42, i32 0, i32 1
  %44 = load i64, ptr %7, align 8, !tbaa !18
  %45 = getelementptr [1 x ptr], ptr %43, i64 0, i64 %44
  %46 = load ptr, ptr %45, align 8, !tbaa !4
  store ptr %46, ptr %10, align 8, !tbaa !4
  %47 = load ptr, ptr %5, align 8, !tbaa !4
  %48 = load ptr, ptr %10, align 8, !tbaa !4
  %49 = call ptr @dotted_getattr(ptr noundef %47, ptr noundef %48)
  store ptr %49, ptr %11, align 8, !tbaa !4
  %50 = load ptr, ptr %11, align 8, !tbaa !4
  %51 = icmp eq ptr %50, null
  br i1 %51, label %52, label %54

52:                                               ; preds = %39
  %53 = load ptr, ptr %6, align 8, !tbaa !4
  call void @Py_DECREF(ptr noundef %53)
  store ptr null, ptr %3, align 8
  store i32 1, ptr %9, align 4
  br label %58

54:                                               ; preds = %39
  %55 = load ptr, ptr %6, align 8, !tbaa !4
  %56 = load i64, ptr %7, align 8, !tbaa !18
  %57 = load ptr, ptr %11, align 8, !tbaa !4
  call void @PyTuple_SET_ITEM(ptr noundef %55, i64 noundef %56, ptr noundef %57)
  store i32 0, ptr %9, align 4
  br label %58

58:                                               ; preds = %54, %52
  call void @llvm.lifetime.end.p0(i64 8, ptr %11) #7
  call void @llvm.lifetime.end.p0(i64 8, ptr %10) #7
  %59 = load i32, ptr %9, align 4
  switch i32 %59, label %66 [
    i32 0, label %60
  ]

60:                                               ; preds = %58
  br label %61

61:                                               ; preds = %60
  %62 = load i64, ptr %7, align 8, !tbaa !18
  %63 = add i64 %62, 1
  store i64 %63, ptr %7, align 8, !tbaa !18
  br label %35, !llvm.loop !59

64:                                               ; preds = %35
  %65 = load ptr, ptr %6, align 8, !tbaa !4
  store ptr %65, ptr %3, align 8
  store i32 1, ptr %9, align 4
  br label %66

66:                                               ; preds = %64, %58, %33, %19
  call void @llvm.lifetime.end.p0(i64 8, ptr %8) #7
  call void @llvm.lifetime.end.p0(i64 8, ptr %7) #7
  call void @llvm.lifetime.end.p0(i64 8, ptr %6) #7
  %67 = load ptr, ptr %3, align 8
  ret ptr %67
}