; Function Attrs: nounwind uwtable
define internal fastcc ptr @attrgetter_call_impl(ptr noundef readonly captures(none) %0, ptr noundef %1) unnamed_addr #0 {
  %3 = getelementptr inbounds nuw i8, ptr %0, i64 16
  %4 = load i64, ptr %3, align 8, !tbaa !72
  %5 = icmp eq i64 %4, 1
  br i1 %5, label %6, label %33

6:                                                ; preds = %2
  %7 = getelementptr inbounds nuw i8, ptr %0, i64 24
  %8 = load ptr, ptr %7, align 8, !tbaa !44
  %9 = getelementptr inbounds nuw i8, ptr %8, i64 24
  %10 = load ptr, ptr %9, align 8, !tbaa !17
  %11 = getelementptr i8, ptr %10, i64 8
  %.val26.i = load ptr, ptr %11, align 8, !tbaa !19
  %.not.i25 = icmp eq ptr %.val26.i, @PyTuple_Type
  br i1 %.not.i25, label %12, label %31

12:                                               ; preds = %6
  %13 = getelementptr i8, ptr %10, i64 16
  %.val.i = load i64, ptr %13, align 8, !tbaa !43
  %14 = load i32, ptr %1, align 8, !tbaa !18
  %15 = icmp slt i32 %14, 0
  br i1 %15, label %Py_INCREF.exit.i, label %16

16:                                               ; preds = %12
  %17 = add nuw i32 %14, 1
  store i32 %17, ptr %1, align 8, !tbaa !18
  br label %Py_INCREF.exit.i

Py_INCREF.exit.i:                                 ; preds = %16, %12
  %.not2527.i = icmp sgt i64 %.val.i, 0
  br i1 %.not2527.i, label %.lr.ph.i, label %dotted_getattr.exit

.lr.ph.i:                                         ; preds = %Py_INCREF.exit.i
  %18 = getelementptr inbounds nuw i8, ptr %10, i64 24
  br label %21

19:                                               ; preds = %Py_DECREF.exit.i
  %20 = add nuw nsw i64 %.02228.i, 1
  %exitcond.not.i = icmp eq i64 %20, %.val.i
  br i1 %exitcond.not.i, label %dotted_getattr.exit, label %21, !llvm.loop !74

21:                                               ; preds = %19, %.lr.ph.i
  %.02029.i = phi ptr [ %1, %.lr.ph.i ], [ %24, %19 ]
  %.02228.i = phi i64 [ 0, %.lr.ph.i ], [ %20, %19 ]
  %22 = getelementptr [1 x ptr], ptr %18, i64 0, i64 %.02228.i
  %23 = load ptr, ptr %22, align 8, !tbaa !17
  %24 = tail call ptr @PyObject_GetAttr(ptr noundef nonnull %.02029.i, ptr noundef %23) #7
  %25 = load i32, ptr %.02029.i, align 8, !tbaa !18
  %.not.i.i = icmp sgt i32 %25, -1
  br i1 %.not.i.i, label %26, label %Py_DECREF.exit.i

26:                                               ; preds = %21
  %27 = add nsw i32 %25, -1
  store i32 %27, ptr %.02029.i, align 8, !tbaa !18
  %28 = icmp eq i32 %27, 0
  br i1 %28, label %29, label %Py_DECREF.exit.i

29:                                               ; preds = %26
  tail call void @_Py_Dealloc(ptr noundef nonnull %.02029.i) #7
  br label %Py_DECREF.exit.i

Py_DECREF.exit.i:                                 ; preds = %29, %26, %21
  %30 = icmp eq ptr %24, null
  br i1 %30, label %dotted_getattr.exit, label %19

31:                                               ; preds = %6
  %32 = tail call ptr @PyObject_GetAttr(ptr noundef %1, ptr noundef nonnull %10) #7
  br label %dotted_getattr.exit

33:                                               ; preds = %2
  %34 = tail call ptr @PyTuple_New(i64 noundef %4) #7
  %35 = icmp eq ptr %34, null
  br i1 %35, label %dotted_getattr.exit, label %.preheader

.preheader:                                       ; preds = %33
  %36 = icmp sgt i64 %4, 0
  br i1 %36, label %.lr.ph, label %dotted_getattr.exit

.lr.ph:                                           ; preds = %.preheader
  %37 = getelementptr inbounds nuw i8, ptr %0, i64 24
  %38 = getelementptr inbounds nuw i8, ptr %34, i64 24
  br label %39

39:                                               ; preds = %.lr.ph, %Py_DECREF.exit.thread49
  %.02055 = phi i64 [ 0, %.lr.ph ], [ %71, %Py_DECREF.exit.thread49 ]
  %40 = load ptr, ptr %37, align 8, !tbaa !44
  %41 = getelementptr inbounds nuw i8, ptr %40, i64 24
  %42 = getelementptr [1 x ptr], ptr %41, i64 0, i64 %.02055
  %43 = load ptr, ptr %42, align 8, !tbaa !17
  %44 = getelementptr i8, ptr %43, i64 8
  %.val26.i26 = load ptr, ptr %44, align 8, !tbaa !19
  %.not.i27 = icmp eq ptr %.val26.i26, @PyTuple_Type
  br i1 %.not.i27, label %45, label %dotted_getattr.exit38

45:                                               ; preds = %39
  %46 = getelementptr i8, ptr %43, i64 16
  %.val.i29 = load i64, ptr %46, align 8, !tbaa !43
  %47 = load i32, ptr %1, align 8, !tbaa !18
  %48 = icmp slt i32 %47, 0
  br i1 %48, label %Py_INCREF.exit.i30, label %49

49:                                               ; preds = %45
  %50 = add nuw i32 %47, 1
  store i32 %50, ptr %1, align 8, !tbaa !18
  br label %Py_INCREF.exit.i30

Py_INCREF.exit.i30:                               ; preds = %49, %45
  %.not2527.i31 = icmp sgt i64 %.val.i29, 0
  br i1 %.not2527.i31, label %.lr.ph.i32, label %Py_DECREF.exit.thread49

.lr.ph.i32:                                       ; preds = %Py_INCREF.exit.i30
  %51 = getelementptr inbounds nuw i8, ptr %43, i64 24
  br label %54

52:                                               ; preds = %Py_DECREF.exit.i36
  %53 = add nuw nsw i64 %.02228.i34, 1
  %exitcond.not.i37 = icmp eq i64 %53, %.val.i29
  br i1 %exitcond.not.i37, label %Py_DECREF.exit.thread49, label %54, !llvm.loop !74

54:                                               ; preds = %52, %.lr.ph.i32
  %.02029.i33 = phi ptr [ %1, %.lr.ph.i32 ], [ %57, %52 ]
  %.02228.i34 = phi i64 [ 0, %.lr.ph.i32 ], [ %53, %52 ]
  %55 = getelementptr [1 x ptr], ptr %51, i64 0, i64 %.02228.i34
  %56 = load ptr, ptr %55, align 8, !tbaa !17
  %57 = tail call ptr @PyObject_GetAttr(ptr noundef nonnull %.02029.i33, ptr noundef %56) #7
  %58 = load i32, ptr %.02029.i33, align 8, !tbaa !18
  %.not.i.i35 = icmp sgt i32 %58, -1
  br i1 %.not.i.i35, label %59, label %Py_DECREF.exit.i36

59:                                               ; preds = %54
  %60 = add nsw i32 %58, -1
  store i32 %60, ptr %.02029.i33, align 8, !tbaa !18
  %61 = icmp eq i32 %60, 0
  br i1 %61, label %62, label %Py_DECREF.exit.i36

62:                                               ; preds = %59
  tail call void @_Py_Dealloc(ptr noundef nonnull %.02029.i33) #7
  br label %Py_DECREF.exit.i36

Py_DECREF.exit.i36:                               ; preds = %62, %59, %54
  %63 = icmp eq ptr %57, null
  br i1 %63, label %dotted_getattr.exit38.thread44, label %52

dotted_getattr.exit38:                            ; preds = %39
  %64 = tail call ptr @PyObject_GetAttr(ptr noundef %1, ptr noundef nonnull %43) #7
  %.not = icmp eq ptr %64, null
  br i1 %.not, label %dotted_getattr.exit38.thread44, label %Py_DECREF.exit.thread49

dotted_getattr.exit38.thread44:                   ; preds = %dotted_getattr.exit38, %Py_DECREF.exit.i36
  %65 = load i32, ptr %34, align 8, !tbaa !18
  %.not.i = icmp sgt i32 %65, -1
  br i1 %.not.i, label %66, label %dotted_getattr.exit

66:                                               ; preds = %dotted_getattr.exit38.thread44
  %67 = add nsw i32 %65, -1
  store i32 %67, ptr %34, align 8, !tbaa !18
  %68 = icmp eq i32 %67, 0
  br i1 %68, label %69, label %dotted_getattr.exit

69:                                               ; preds = %66
  tail call void @_Py_Dealloc(ptr noundef nonnull %34) #7
  br label %dotted_getattr.exit

Py_DECREF.exit.thread49:                          ; preds = %52, %Py_INCREF.exit.i30, %dotted_getattr.exit38
  %.1.i28.ph.sink = phi ptr [ %64, %dotted_getattr.exit38 ], [ %1, %Py_INCREF.exit.i30 ], [ %57, %52 ]
  %70 = getelementptr [1 x ptr], ptr %38, i64 0, i64 %.02055
  store ptr %.1.i28.ph.sink, ptr %70, align 8, !tbaa !17
  %71 = add nuw nsw i64 %.02055, 1
  %exitcond.not = icmp eq i64 %71, %4
  br i1 %exitcond.not, label %dotted_getattr.exit, label %39, !llvm.loop !75

dotted_getattr.exit:                              ; preds = %Py_DECREF.exit.thread49, %Py_DECREF.exit.i, %19, %.preheader, %69, %66, %dotted_getattr.exit38.thread44, %31, %Py_INCREF.exit.i, %33
  %.0 = phi ptr [ null, %33 ], [ %32, %31 ], [ %1, %Py_INCREF.exit.i ], [ null, %dotted_getattr.exit38.thread44 ], [ null, %66 ], [ null, %69 ], [ %34, %.preheader ], [ %24, %19 ], [ null, %Py_DECREF.exit.i ], [ %34, %Py_DECREF.exit.thread49 ]
  ret ptr %.0
}